target datalayout = "e-m:e-p270:32:32-p271:32:32-p272:64:64-i64:64-i128:128-f80:128-n8:16:32:64-S128"
target triple = "x86_64-pc-linux-gnu"

%struct.padlock_cipher_data = type { [16 x i8], %union.anon, %struct.aes_key_st }
%union.anon = type { [4 x i32] }
%struct.aes_key_st = type { [60 x i32], i32 }

; Function Attrs: nounwind uwtable
define internal i32 @padlock_cbc_cipher(ptr noundef %0, ptr noundef %1, ptr noundef %2, i64 noundef %3) #0 {
  %5 = alloca ptr, align 8
  %6 = alloca ptr, align 8
  %7 = alloca ptr, align 8
  %8 = alloca i64, align 8
  %9 = alloca ptr, align 8
  %10 = alloca i32, align 4
  store ptr %0, ptr %5, align 8, !tbaa !30
  store ptr %1, ptr %6, align 8, !tbaa !10
  store ptr %2, ptr %7, align 8, !tbaa !10
  store i64 %3, ptr %8, align 8, !tbaa !3
  call void @llvm.lifetime.start.p0(i64 8, ptr %9) #7
  %11 = load ptr, ptr %5, align 8, !tbaa !30
  %12 = call ptr @EVP_CIPHER_CTX_get_cipher_data(ptr noundef %11)
  %13 = load ptr, ptr %5, align 8, !tbaa !30
  %14 = call ptr @EVP_CIPHER_CTX_get_cipher_data(ptr noundef %13)
  %15 = ptrtoint ptr %14 to i64
  %16 = and i64 %15, 15
  %17 = sub i64 16, %16
  %18 = and i64 %17, 15
  %19 = getelementptr inbounds nuw i8, ptr %12, i64 %18
  store ptr %19, ptr %9, align 8, !tbaa !32
  call void @llvm.lifetime.start.p0(i64 4, ptr %10) #7
  %20 = load ptr, ptr %9, align 8, !tbaa !32
  %21 = getelementptr inbounds nuw %struct.padlock_cipher_data, ptr %20, i32 0, i32 0
  %22 = getelementptr inbounds [16 x i8], ptr %21, i64 0, i64 0
  %23 = load ptr, ptr %5, align 8, !tbaa !30
  %24 = call ptr @EVP_CIPHER_CTX_iv(ptr noundef %23)
  call void @llvm.memcpy.p0.p0.i64(ptr align 4 %22, ptr align 1 %24, i64 16, i1 false)
  %25 = load ptr, ptr %6, align 8, !tbaa !10
  %26 = load ptr, ptr %7, align 8, !tbaa !10
  %27 = load ptr, ptr %9, align 8, !tbaa !32
  %28 = load i64, ptr %8, align 8, !tbaa !3
  %29 = call i32 @padlock_cbc_encrypt(ptr noundef %25, ptr noundef %26, ptr noundef %27, i64 noundef %28)
  store i32 %29, ptr %10, align 4, !tbaa !20
  %30 = icmp ne i32 %29, 0
  br i1 %30, label %31, label %37

31:                                               ; preds = %4
  %32 = load ptr, ptr %5, align 8, !tbaa !30
  %33 = call ptr @EVP_CIPHER_CTX_iv_noconst(ptr noundef %32)
  %34 = load ptr, ptr %9, align 8, !tbaa !32
  %35 = getelementptr inbounds nuw %struct.padlock_cipher_data, ptr %34, i32 0, i32 0
  %36 = getelementptr inbounds [16 x i8], ptr %35, i64 0, i64 0
  call void @llvm.memcpy.p0.p0.i64(ptr align 1 %33, ptr align 4 %36, i64 16, i1 false)
  br label %37

37:                                               ; preds = %31, %4
  %38 = load i32, ptr %10, align 4, !tbaa !20
  call void @llvm.lifetime.end.p0(i64 4, ptr %10) #7
  call void @llvm.lifetime.end.p0(i64 8, ptr %9) #7
  ret i32 %38
}