; Function Attrs: nounwind uwtable
define internal i32 @padlock_cbc_cipher(ptr noundef %0, ptr noundef %1, ptr noundef %2, i64 noundef %3) #1 {
  %5 = tail call ptr @EVP_CIPHER_CTX_get_cipher_data(ptr noundef %0) #10
  %6 = tail call ptr @EVP_CIPHER_CTX_get_cipher_data(ptr noundef %0) #10
  %7 = ptrtoint ptr %6 to i64
  %8 = sub i64 0, %7
  %9 = and i64 %8, 15
  %10 = getelementptr inbounds nuw i8, ptr %5, i64 %9
  %11 = tail call ptr @EVP_CIPHER_CTX_iv(ptr noundef %0) #10
  tail call void @llvm.memcpy.p0.p0.i64(ptr noundef nonnull align 4 dereferenceable(16) %10, ptr noundef nonnull align 1 dereferenceable(16) %11, i64 16, i1 false)
  %12 = tail call i32 @padlock_cbc_encrypt(ptr noundef %1, ptr noundef %2, ptr noundef nonnull %10, i64 noundef %3) #10
  %.not = icmp eq i32 %12, 0
  br i1 %.not, label %15, label %13

13:                                               ; preds = %4
  %14 = tail call ptr @EVP_CIPHER_CTX_iv_noconst(ptr noundef %0) #10
  tail call void @llvm.memcpy.p0.p0.i64(ptr noundef nonnull align 1 dereferenceable(16) %14, ptr noundef nonnull align 4 dereferenceable(16) %10, i64 16, i1 false)
  br label %15

15:                                               ; preds = %13, %4
  ret i32 %12
}